target datalayout = "e-m:e-p270:32:32-p271:32:32-p272:64:64-i64:64-i128:128-f80:128-n8:16:32:64-S128"
target triple = "x86_64-pc-linux-gnu"

%struct.JNINativeInterface_ = type { ptr, ptr, ptr, ptr, ptr, ptr, ptr, ptr, ptr, ptr, ptr, ptr, ptr, ptr, ptr, ptr, ptr, ptr, ptr, ptr, ptr, ptr, ptr, ptr, ptr, ptr, ptr, ptr, ptr, ptr, ptr, ptr, ptr, ptr, ptr, ptr, ptr, ptr, ptr, ptr, ptr, ptr, ptr, ptr, ptr, ptr, ptr, ptr, ptr, ptr, ptr, ptr, ptr, ptr, ptr, ptr, ptr, ptr, ptr, ptr, ptr, ptr, ptr, ptr, ptr, ptr, ptr, ptr, ptr, ptr, ptr, ptr, ptr, ptr, ptr, ptr, ptr, ptr, ptr, ptr, ptr, ptr, ptr, ptr, ptr, ptr, ptr, ptr, ptr, ptr, ptr, ptr, ptr, ptr, ptr, ptr, ptr, ptr, ptr, ptr, ptr, ptr, ptr, ptr, ptr, ptr, ptr, ptr, ptr, ptr, ptr, ptr, ptr, ptr, ptr, ptr, ptr, ptr, ptr, ptr, ptr, ptr, ptr, ptr, ptr, ptr, ptr, ptr, ptr, ptr, ptr, ptr, ptr, ptr, ptr, ptr, ptr, ptr, ptr, ptr, ptr, ptr, ptr, ptr, ptr, ptr, ptr, ptr, ptr, ptr, ptr, ptr, ptr, ptr, ptr, ptr, ptr, ptr, ptr, ptr, ptr, ptr, ptr, ptr, ptr, ptr, ptr, ptr, ptr, ptr, ptr, ptr, ptr, ptr, ptr, ptr, ptr, ptr, ptr, ptr, ptr, ptr, ptr, ptr, ptr, ptr, ptr, ptr, ptr, ptr, ptr, ptr, ptr, ptr, ptr, ptr, ptr, ptr, ptr, ptr, ptr, ptr, ptr, ptr, ptr, ptr, ptr, ptr, ptr, ptr, ptr, ptr, ptr, ptr, ptr, ptr, ptr, ptr, ptr, ptr, ptr, ptr, ptr, ptr, ptr, ptr, ptr, ptr, ptr, ptr, ptr, ptr, ptr, ptr, ptr }

@.str.46 = private unnamed_addr constant [25 x i8] c"sun/nio/fs/UnixException\00", align 1
@.str.47 = private unnamed_addr constant [5 x i8] c"(I)V\00", align 1

; Function Attrs: nounwind uwtable
define internal void @throwUnixException(ptr noundef %0, i32 noundef %1) #0 {
  %3 = alloca ptr, align 8
  %4 = alloca i32, align 4
  %5 = alloca ptr, align 8
  store ptr %0, ptr %3, align 8
  store i32 %1, ptr %4, align 4
  %6 = load ptr, ptr %3, align 8
  %7 = load i32, ptr %4, align 4
  %8 = call ptr (ptr, ptr, ptr, ...) @JNU_NewObjectByName(ptr noundef %6, ptr noundef @.str.46, ptr noundef @.str.47, i32 noundef %7)
  store ptr %8, ptr %5, align 8
  %9 = load ptr, ptr %5, align 8
  %10 = icmp ne ptr %9, null
  br i1 %10, label %11, label %19

11:                                               ; preds = %2
  %12 = load ptr, ptr %3, align 8
  %13 = load ptr, ptr %12, align 8
  %14 = getelementptr inbounds %struct.JNINativeInterface_, ptr %13, i32 0, i32 13
  %15 = load ptr, ptr %14, align 8
  %16 = load ptr, ptr %3, align 8
  %17 = load ptr, ptr %5, align 8
  %18 = call i32 %15(ptr noundef %16, ptr noundef %17)
  br label %19

19:                                               ; preds = %11, %2
  ret void
}

; Function Attrs: nounwind uwtable
define i32 @Java_sun_nio_fs_UnixNativeDispatcher_read0(ptr noundef %0, ptr noundef %1, i32 noundef %2, i64 noundef %3, i32 noundef %4) #0 {
  %6 = alloca ptr, align 8
  %7 = alloca ptr, align 8
  %8 = alloca i32, align 4
  %9 = alloca i64, align 8
  %10 = alloca i32, align 4
  %11 = alloca i64, align 8
  %12 = alloca ptr, align 8
  store ptr %0, ptr %6, align 8
  store ptr %1, ptr %7, align 8
  store i32 %2, ptr %8, align 4
  store i64 %3, ptr %9, align 8
  store i32 %4, ptr %10, align 4
  %13 = load i64, ptr %9, align 8
  %14 = inttoptr i64 %13 to ptr
  store ptr %14, ptr %12, align 8
  br label %15

15:                                               ; preds = %5
  br label %16

16:                                               ; preds = %29, %15
  %17 = load i32, ptr %8, align 4
  %18 = load ptr, ptr %12, align 8
  %19 = load i32, ptr %10, align 4
  %20 = sext i32 %19 to i64
  %21 = call i64 @read(i32 noundef %17, ptr noundef %18, i64 noundef %20)
  store i64 %21, ptr %11, align 8
  br label %22

22:                                               ; preds = %16
  %23 = load i64, ptr %11, align 8
  %24 = icmp eq i64 %23, -1
  br i1 %24, label %25, label %29

25:                                               ; preds = %22
  %26 = call ptr @__errno_location() #7
  %27 = load i32, ptr %26, align 4
  %28 = icmp eq i32 %27, 4
  br label %29

29:                                               ; preds = %25, %22
  %30 = phi i1 [ false, %22 ], [ %28, %25 ]
  br i1 %30, label %16, label %31, !llvm.loop !10

31:                                               ; preds = %29
  br label %32

32:                                               ; preds = %31
  %33 = load i64, ptr %11, align 8
  %34 = icmp eq i64 %33, -1
  br i1 %34, label %35, label %39

35:                                               ; preds = %32
  %36 = load ptr, ptr %6, align 8
  %37 = call ptr @__errno_location() #7
  %38 = load i32, ptr %37, align 4
  call void @throwUnixException(ptr noundef %36, i32 noundef %38)
  br label %39

39:                                               ; preds = %35, %32
  %40 = load i64, ptr %11, align 8
  %41 = trunc i64 %40 to i32
  ret i32 %41
}