; Function Attrs: nounwind uwtable
define noundef i32 @Java_sun_nio_fs_UnixNativeDispatcher_read0(ptr noundef %0, ptr nocapture noundef readnone %1, i32 noundef %2, i64 noundef %3, i32 noundef %4) local_unnamed_addr #0 {
  %6 = inttoptr i64 %3 to ptr
  %7 = sext i32 %4 to i64
  br label %8

8:                                                ; preds = %11, %5
  %9 = tail call i64 @read(i32 noundef %2, ptr noundef %6, i64 noundef %7) #11
  %10 = icmp eq i64 %9, -1
  br i1 %10, label %11, label %.critedge7.loopexit

11:                                               ; preds = %8
  %12 = tail call ptr @__errno_location() #12
  %13 = load i32, ptr %12, align 4
  %14 = icmp eq i32 %13, 4
  br i1 %14, label %8, label %.critedge, !llvm.loop !10

.critedge:                                        ; preds = %11
  %15 = tail call ptr (ptr, ptr, ptr, ...) @JNU_NewObjectByName(ptr noundef %0, ptr noundef nonnull @.str.46, ptr noundef nonnull @.str.47, i32 noundef %13) #11
  %.not.i = icmp eq ptr %15, null
  br i1 %.not.i, label %.critedge7, label %16

16:                                               ; preds = %.critedge
  %17 = load ptr, ptr %0, align 8
  %18 = getelementptr inbounds i8, ptr %17, i64 104
  %19 = load ptr, ptr %18, align 8
  %20 = tail call i32 %19(ptr noundef nonnull %0, ptr noundef nonnull %15) #11
  br label %.critedge7

.critedge7.loopexit:                              ; preds = %8
  %21 = trunc i64 %9 to i32
  br label %.critedge7

.critedge7:                                       ; preds = %.critedge7.loopexit, %16, %.critedge
  %22 = phi i32 [ %21, %.critedge7.loopexit ], [ -1, %16 ], [ -1, %.critedge ]
  ret i32 %22
}